target datalayout = "e-m:e-p270:32:32-p271:32:32-p272:64:64-i64:64-i128:128-f80:128-n8:16:32:64-S128"
target triple = "x86_64-pc-linux-gnu"

@blake2b_compress = internal global ptr @_sodium_blake2b_compress_ref, align 8

; Function Attrs: nounwind ssp uwtable
define hidden i32 @_sodium_blake2b_pick_best_implementation() #0 {
  %1 = alloca i32, align 4
  %2 = call i32 @sodium_runtime_has_avx2()
  %3 = icmp ne i32 %2, 0
  br i1 %3, label %4, label %5

4:                                                ; preds = %0
  store ptr @_sodium_blake2b_compress_avx2, ptr @blake2b_compress, align 8
  store i32 0, ptr %1, align 4
  br label %14

5:                                                ; preds = %0
  %6 = call i32 @sodium_runtime_has_sse41()
  %7 = icmp ne i32 %6, 0
  br i1 %7, label %8, label %9

8:                                                ; preds = %5
  store ptr @_sodium_blake2b_compress_sse41, ptr @blake2b_compress, align 8
  store i32 0, ptr %1, align 4
  br label %14

9:                                                ; preds = %5
  %10 = call i32 @sodium_runtime_has_ssse3()
  %11 = icmp ne i32 %10, 0
  br i1 %11, label %12, label %13

12:                                               ; preds = %9
  store ptr @_sodium_blake2b_compress_ssse3, ptr @blake2b_compress, align 8
  store i32 0, ptr %1, align 4
  br label %14

13:                                               ; preds = %9
  store ptr @_sodium_blake2b_compress_ref, ptr @blake2b_compress, align 8
  store i32 0, ptr %1, align 4
  br label %14

14:                                               ; preds = %13, %12, %8, %4
  %15 = load i32, ptr %1, align 4
  ret i32 %15
}