; Function Attrs: nounwind ssp uwtable
define hidden noundef i32 @_sodium_blake2b_pick_best_implementation() local_unnamed_addr #2 {
  %1 = tail call i32 @sodium_runtime_has_avx2() #8
  %.not = icmp eq i32 %1, 0
  br i1 %.not, label %2, label %6

2:                                                ; preds = %0
  %3 = tail call i32 @sodium_runtime_has_sse41() #8
  %.not1 = icmp eq i32 %3, 0
  br i1 %.not1, label %4, label %6

4:                                                ; preds = %2
  %5 = tail call i32 @sodium_runtime_has_ssse3() #8
  %.not2 = icmp eq i32 %5, 0
  %_sodium_blake2b_compress_ref._sodium_blake2b_compress_ssse3 = select i1 %.not2, ptr @_sodium_blake2b_compress_ref, ptr @_sodium_blake2b_compress_ssse3
  br label %6

6:                                                ; preds = %4, %2, %0
  %_sodium_blake2b_compress_ref.sink = phi ptr [ @_sodium_blake2b_compress_avx2, %0 ], [ @_sodium_blake2b_compress_sse41, %2 ], [ %_sodium_blake2b_compress_ref._sodium_blake2b_compress_ssse3, %4 ]
  store ptr %_sodium_blake2b_compress_ref.sink, ptr @blake2b_compress, align 8
  ret i32 0
}